; Function Attrs: mustprogress uwtable
define dso_local void @_ZN17cmQtAutoGenerator6Logger8HeadLineB5cxx11ESt17basic_string_viewIcSt11char_traitsIcEE(ptr dead_on_unwind noalias writable sret(%"class.std::__cxx11::basic_string") align 8 %0, i64 %1, ptr %2) local_unnamed_addr #3 align 2 personality ptr @__gxx_personality_v0 {
  %4 = alloca [4 x %"struct.std::pair.15"], align 8
  %5 = alloca %class.cmAlphaNum, align 8
  %6 = alloca %class.cmAlphaNum, align 8
  %7 = alloca %"class.std::__cxx11::basic_string", align 8
  %8 = alloca %"class.std::allocator", align 1
  call void @_ZNSaIcEC1Ev(ptr noundef nonnull align 1 dereferenceable(1) %8) #21
  %9 = invoke noundef ptr @_ZNSt7__cxx1112basic_stringIcSt11char_traitsIcESaIcEE13_M_local_dataEv(ptr noundef nonnull align 8 dereferenceable(32) %7)
          to label %.noexc unwind label %29

.noexc:                                           ; preds = %3
  invoke void @_ZNSt7__cxx1112basic_stringIcSt11char_traitsIcESaIcEE12_Alloc_hiderC1EPcRKS3_(ptr noundef nonnull align 8 dereferenceable(8) %7, ptr noundef %9, ptr noundef nonnull align 1 dereferenceable(1) %8)
          to label %.noexc3 unwind label %29

.noexc3:                                          ; preds = %.noexc
  invoke void @_ZNSt7__cxx1112basic_stringIcSt11char_traitsIcESaIcEE12_M_constructEmc(ptr noundef nonnull align 8 dereferenceable(32) %7, i64 noundef %1, i8 noundef signext 45)
          to label %_ZNSt7__cxx1112basic_stringIcSt11char_traitsIcESaIcEEC2IS3_EEmcRKS3_.exit unwind label %10

10:                                               ; preds = %.noexc3
  %11 = landingpad { ptr, i32 }
          cleanup
  call void @_ZNSaIcED2Ev(ptr noundef nonnull align 1 dereferenceable(1) %7) #21
  br label %.body

_ZNSt7__cxx1112basic_stringIcSt11char_traitsIcESaIcEEC2IS3_EEmcRKS3_.exit: ; preds = %.noexc3
  call void @llvm.lifetime.start.p0(i64 96, ptr nonnull %4)
  call void @llvm.lifetime.start.p0(i64 56, ptr nonnull %5)
  call void @llvm.lifetime.start.p0(i64 56, ptr nonnull %6)
  store i64 %1, ptr %4, align 8, !alias.scope !5, !noalias !8
  %.sroa.2.0..sroa_idx.i6.i = getelementptr inbounds i8, ptr %4, i64 8
  store ptr %2, ptr %.sroa.2.0..sroa_idx.i6.i, align 8, !alias.scope !5, !noalias !8
  %12 = getelementptr inbounds i8, ptr %4, i64 16
  store ptr null, ptr %12, align 8, !alias.scope !5, !noalias !8
  %13 = getelementptr inbounds i8, ptr %4, i64 24
  store ptr null, ptr %5, align 8, !noalias !8
  %14 = getelementptr inbounds i8, ptr %5, i64 8
  %15 = getelementptr inbounds i8, ptr %5, i64 24
  store i64 1, ptr %14, align 8, !noalias !8
  %16 = getelementptr inbounds i8, ptr %5, i64 16
  store ptr %15, ptr %16, align 8, !noalias !8
  store i8 10, ptr %15, align 8, !noalias !8
  store i64 1, ptr %13, align 8, !alias.scope !11, !noalias !8
  %.sroa.2.0..sroa_idx.i11.i = getelementptr inbounds i8, ptr %4, i64 32
  store ptr %15, ptr %.sroa.2.0..sroa_idx.i11.i, align 8, !alias.scope !11, !noalias !8
  %17 = getelementptr inbounds i8, ptr %4, i64 40
  store ptr null, ptr %17, align 8, !alias.scope !11, !noalias !8
  %18 = getelementptr inbounds i8, ptr %4, i64 48
  call void @llvm.experimental.noalias.scope.decl(metadata !14)
  %19 = call { i64, ptr } @_ZNKSt7__cxx1112basic_stringIcSt11char_traitsIcESaIcEEcvSt17basic_string_viewIcS2_EEv(ptr noundef nonnull align 8 dereferenceable(32) %7) #21, !noalias !17
  %20 = extractvalue { i64, ptr } %19, 0
  %21 = extractvalue { i64, ptr } %19, 1
  store i64 %20, ptr %18, align 8, !alias.scope !14, !noalias !8
  %.sroa.2.0..sroa_idx.i20.i = getelementptr inbounds i8, ptr %4, i64 56
  store ptr %21, ptr %.sroa.2.0..sroa_idx.i20.i, align 8, !alias.scope !14, !noalias !8
  %22 = getelementptr inbounds i8, ptr %4, i64 64
  store ptr %7, ptr %22, align 8, !alias.scope !14, !noalias !8
  %23 = getelementptr inbounds i8, ptr %4, i64 72
  store ptr null, ptr %6, align 8, !noalias !8
  %24 = getelementptr inbounds i8, ptr %6, i64 8
  %25 = getelementptr inbounds i8, ptr %6, i64 24
  store i64 1, ptr %24, align 8, !noalias !8
  %26 = getelementptr inbounds i8, ptr %6, i64 16
  store ptr %25, ptr %26, align 8, !noalias !8
  store i8 10, ptr %25, align 8, !noalias !8
  store i64 1, ptr %23, align 8, !alias.scope !18, !noalias !8
  %.sroa.2.0..sroa_idx.i29.i = getelementptr inbounds i8, ptr %4, i64 80
  store ptr %25, ptr %.sroa.2.0..sroa_idx.i29.i, align 8, !alias.scope !18, !noalias !8
  %27 = getelementptr inbounds i8, ptr %4, i64 88
  store ptr null, ptr %27, align 8, !alias.scope !18, !noalias !8
  invoke void @_Z10cmCatViewsSt16initializer_listISt4pairISt17basic_string_viewIcSt11char_traitsIcEEPNSt7__cxx1112basic_stringIcS3_SaIcEEEEE(ptr dead_on_unwind writable sret(%"class.std::__cxx11::basic_string") align 8 %0, ptr nonnull %4, i64 4)
          to label %28 unwind label %31

28:                                               ; preds = %_ZNSt7__cxx1112basic_stringIcSt11char_traitsIcESaIcEEC2IS3_EEmcRKS3_.exit
  call void @llvm.lifetime.end.p0(i64 96, ptr nonnull %4)
  call void @llvm.lifetime.end.p0(i64 56, ptr nonnull %5)
  call void @llvm.lifetime.end.p0(i64 56, ptr nonnull %6)
  call void @_ZNSt7__cxx1112basic_stringIcSt11char_traitsIcESaIcEED1Ev(ptr noundef nonnull align 8 dereferenceable(32) %7) #21
  call void @_ZNSaIcED1Ev(ptr noundef nonnull align 1 dereferenceable(1) %8) #21
  ret void

29:                                               ; preds = %.noexc, %3
  %30 = landingpad { ptr, i32 }
          cleanup
  br label %.body

31:                                               ; preds = %_ZNSt7__cxx1112basic_stringIcSt11char_traitsIcESaIcEEC2IS3_EEmcRKS3_.exit
  %32 = landingpad { ptr, i32 }
          cleanup
  call void @_ZNSt7__cxx1112basic_stringIcSt11char_traitsIcESaIcEED1Ev(ptr noundef nonnull align 8 dereferenceable(32) %7) #21
  br label %.body

.body:                                            ; preds = %29, %10, %31
  %.pn = phi { ptr, i32 } [ %32, %31 ], [ %30, %29 ], [ %11, %10 ]
  call void @_ZNSaIcED1Ev(ptr noundef nonnull align 1 dereferenceable(1) %8) #21
  resume { ptr, i32 } %.pn
}